; Function Attrs: nofree null_pointer_is_valid sspstrong uwtable
define internal void @decode_illum_meas_tolerance(ptr noundef %0, i16 noundef zeroext %1) #1 {
  %3 = icmp ugt i16 %1, 2048
  br i1 %3, label %4, label %6

4:                                                ; preds = %2
  %5 = tail call i32 (ptr, i64, i32, i64, ptr, ...) @__snprintf_chk(ptr noundef %0, i64 noundef 240, i32 noundef 2, i64 noundef -1, ptr noundef nonnull @.str.104)
  br label %9

6:                                                ; preds = %2
  %7 = zext nneg i16 %1 to i32
  %8 = tail call i32 (ptr, i64, i32, i64, ptr, ...) @__snprintf_chk(ptr noundef %0, i64 noundef 240, i32 noundef 2, i64 noundef -1, ptr noundef nonnull @.str.105, i32 noundef %7)
  br label %9

9:                                                ; preds = %6, %4
  ret void
}